target datalayout = "e-m:e-p270:32:32-p271:32:32-p272:64:64-i64:64-i128:128-f80:128-n8:16:32:64-S128"
target triple = "x86_64-pc-linux-gnu"

%struct.darktable_t = type { %struct.dt_codepath_t, i32, i32, ptr, ptr, ptr, ptr, ptr, ptr, ptr, ptr, ptr, ptr, ptr, ptr, ptr, ptr, ptr, ptr, ptr, ptr, ptr, ptr, ptr, ptr, ptr, ptr, ptr, ptr, ptr, [64 x %struct.dt_pthread_mutex_t], %struct.dt_pthread_mutex_t, %struct.dt_pthread_mutex_t, %struct.dt_pthread_mutex_t, %struct.dt_pthread_mutex_t, %struct.dt_pthread_mutex_t, ptr, ptr, ptr, ptr, ptr, ptr, ptr, ptr, ptr, ptr, ptr, ptr, ptr, %struct.dt_lua_state_t, ptr, double, ptr, i32, [47 x i32], i32, i32, ptr, ptr, %struct.dt_sys_resources_t, %struct.dt_backthumb_t, %struct.dt_gimp_t }
%struct.dt_codepath_t = type { i8, [3 x i8] }
%struct.dt_pthread_mutex_t = type { %union.pthread_mutex_t }
%union.pthread_mutex_t = type { %struct.__pthread_mutex_s }
%struct.__pthread_mutex_s = type { i32, i32, i32, i32, i32, i16, i16, %struct.__pthread_internal_list }
%struct.__pthread_internal_list = type { ptr, ptr }
%struct.dt_lua_state_t = type { i32 }
%struct.dt_sys_resources_t = type { i64, i64, ptr, ptr, i32 }
%struct.dt_backthumb_t = type { double, double, i32, i32, i32, i32 }
%struct.dt_gimp_t = type { i32, ptr, ptr, i32, i32 }

@.str = private unnamed_addr constant [5 x i8] c"file\00", align 1
@.str.1 = private unnamed_addr constant [6 x i8] c"thumb\00", align 1
@.str.2 = private unnamed_addr constant [19 x i8] c"show_splash_screen\00", align 1
@.str.4 = private unnamed_addr constant [13 x i8] c"splashscreen\00", align 1
@exit_screen = internal global ptr null, align 8
@.str.21 = private unnamed_addr constant [19 x i8] c"darktable shutdown\00", align 1
@.str.22 = private unnamed_addr constant [31 x i8] c"darktable is now shutting down\00", align 1
@.str.23 = private unnamed_addr constant [19 x i8] c"exitscreen-message\00", align 1
@.str.24 = private unnamed_addr constant [41 x i8] c"please wait while background jobs finish\00", align 1
@darktable = external global %struct.darktable_t, align 8

; Function Attrs: nounwind uwtable
define internal void @_process_all_gui_events() #0 {
  %1 = alloca i32, align 4
  call void @llvm.lifetime.start.p0(i64 4, ptr %1) #8
  store i32 0, ptr %1, align 4, !tbaa !11
  br label %2

2:                                                ; preds = %7, %0
  %3 = load i32, ptr %1, align 4, !tbaa !11
  %4 = icmp slt i32 %3, 5
  br i1 %4, label %6, label %5

5:                                                ; preds = %2
  call void @llvm.lifetime.end.p0(i64 4, ptr %1) #8
  br label %10

6:                                                ; preds = %2
  call void @g_usleep(i64 noundef 1000)
  call void (...) @dt_gui_process_events()
  br label %7

7:                                                ; preds = %6
  %8 = load i32, ptr %1, align 4, !tbaa !11
  %9 = add nsw i32 %8, 1
  store i32 %9, ptr %1, align 4, !tbaa !11
  br label %2

10:                                               ; preds = %5
  ret void
}

; Function Attrs: inlinehint nounwind uwtable
define internal i32 @dt_check_gimpmode(ptr noundef %0) #1 {
  %2 = alloca ptr, align 8
  store ptr %0, ptr %2, align 8, !tbaa !15
  %3 = load ptr, ptr getelementptr inbounds nuw (%struct.dt_gimp_t, ptr getelementptr inbounds nuw (%struct.darktable_t, ptr @darktable, i32 0, i32 61), i32 0, i32 1), align 8, !tbaa !20
  %4 = icmp ne ptr %3, null
  br i1 %4, label %5, label %11

5:                                                ; preds = %1
  %6 = load ptr, ptr getelementptr inbounds nuw (%struct.dt_gimp_t, ptr getelementptr inbounds nuw (%struct.darktable_t, ptr @darktable, i32 0, i32 61), i32 0, i32 1), align 8, !tbaa !20
  %7 = load ptr, ptr %2, align 8, !tbaa !15
  %8 = call i32 @strcmp(ptr noundef %6, ptr noundef %7) #10
  %9 = icmp eq i32 %8, 0
  %10 = zext i1 %9 to i32
  br label %12

11:                                               ; preds = %1
  br label %12

12:                                               ; preds = %11, %5
  %13 = phi i32 [ %10, %5 ], [ 0, %11 ]
  ret i32 %13
}

; Function Attrs: nounwind uwtable
define void @darktable_exit_screen_create(ptr noundef %0, i32 noundef %1) #0 {
  %3 = alloca ptr, align 8
  %4 = alloca i32, align 4
  %5 = alloca i32, align 4
  %6 = alloca ptr, align 8
  %7 = alloca ptr, align 8
  %8 = alloca ptr, align 8
  %9 = alloca ptr, align 8
  %10 = alloca ptr, align 8
  %11 = alloca ptr, align 8
  store ptr %0, ptr %3, align 8, !tbaa !6
  store i32 %1, ptr %4, align 4, !tbaa !11
  %12 = load ptr, ptr @exit_screen, align 8, !tbaa !13
  %13 = icmp ne ptr %12, null
  br i1 %13, label %26, label %14

14:                                               ; preds = %2
  %15 = call i32 @dt_check_gimpmode(ptr noundef @.str)
  %16 = icmp ne i32 %15, 0
  br i1 %16, label %26, label %17

17:                                               ; preds = %14
  %18 = call i32 @dt_check_gimpmode(ptr noundef @.str.1)
  %19 = icmp ne i32 %18, 0
  br i1 %19, label %26, label %20

20:                                               ; preds = %17
  %21 = call i32 @dt_conf_get_bool(ptr noundef @.str.2)
  %22 = icmp ne i32 %21, 0
  br i1 %22, label %27, label %23

23:                                               ; preds = %20
  %24 = load i32, ptr %4, align 4, !tbaa !11
  %25 = icmp ne i32 %24, 0
  br i1 %25, label %27, label %26

26:                                               ; preds = %23, %17, %14, %2
  br label %73

27:                                               ; preds = %23, %20
  call void @llvm.lifetime.start.p0(i64 4, ptr %5) #8
  store i32 6, ptr %5, align 4, !tbaa !11
  %28 = call ptr @dcgettext(ptr noundef null, ptr noundef @.str.21, i32 noundef 5) #8
  %29 = load ptr, ptr %3, align 8, !tbaa !6
  %30 = load i32, ptr %5, align 4, !tbaa !11
  %31 = call ptr (ptr, ptr, i32, ptr, ...) @gtk_dialog_new_with_buttons(ptr noundef %28, ptr noundef %29, i32 noundef %30, ptr noundef null, i32 noundef -1, ptr noundef null)
  store ptr %31, ptr @exit_screen, align 8, !tbaa !13
  %32 = load ptr, ptr @exit_screen, align 8, !tbaa !13
  %33 = call i64 @gtk_window_get_type() #9
  %34 = call ptr @g_type_check_instance_cast(ptr noundef %32, i64 noundef %33)
  call void @gtk_window_set_position(ptr noundef %34, i32 noundef 1)
  %35 = load ptr, ptr @exit_screen, align 8, !tbaa !13
  call void @gtk_widget_set_name(ptr noundef %35, ptr noundef @.str.4)
  %36 = load ptr, ptr @exit_screen, align 8, !tbaa !13
  call void @_set_header_bar(ptr noundef %36)
  call void @llvm.lifetime.start.p0(i64 8, ptr %6) #8
  %37 = call ptr @_get_program_name()
  store ptr %37, ptr %6, align 8, !tbaa !13
  call void @llvm.lifetime.start.p0(i64 8, ptr %7) #8
  %38 = call ptr @_get_logo()
  store ptr %38, ptr %7, align 8, !tbaa !13
  %39 = load ptr, ptr %7, align 8, !tbaa !13
  %40 = call i64 @gtk_image_get_type() #9
  %41 = call ptr @g_type_check_instance_cast(ptr noundef %39, i64 noundef %40)
  call void @gtk_image_set_pixel_size(ptr noundef %41, i32 noundef 220)
  call void @llvm.lifetime.start.p0(i64 8, ptr %8) #8
  %42 = call ptr @gtk_box_new(i32 noundef 0, i32 noundef 0)
  %43 = call i64 @gtk_box_get_type() #9
  %44 = call ptr @g_type_check_instance_cast(ptr noundef %42, i64 noundef %43)
  store ptr %44, ptr %8, align 8, !tbaa !17
  %45 = load ptr, ptr %8, align 8, !tbaa !17
  %46 = load ptr, ptr %7, align 8, !tbaa !13
  call void @gtk_box_pack_start(ptr noundef %45, ptr noundef %46, i32 noundef 0, i32 noundef 0, i32 noundef 0)
  %47 = load ptr, ptr %8, align 8, !tbaa !17
  %48 = load ptr, ptr %6, align 8, !tbaa !13
  call void @gtk_box_pack_start(ptr noundef %47, ptr noundef %48, i32 noundef 0, i32 noundef 0, i32 noundef 0)
  call void @llvm.lifetime.start.p0(i64 8, ptr %9) #8
  %49 = load ptr, ptr @exit_screen, align 8, !tbaa !13
  %50 = call i64 @gtk_dialog_get_type() #9
  %51 = call ptr @g_type_check_instance_cast(ptr noundef %49, i64 noundef %50)
  %52 = call ptr @gtk_dialog_get_content_area(ptr noundef %51)
  %53 = call i64 @gtk_box_get_type() #9
  %54 = call ptr @g_type_check_instance_cast(ptr noundef %52, i64 noundef %53)
  store ptr %54, ptr %9, align 8, !tbaa !17
  %55 = load ptr, ptr %9, align 8, !tbaa !17
  %56 = load ptr, ptr %8, align 8, !tbaa !17
  %57 = call i64 @gtk_widget_get_type() #9
  %58 = call ptr @g_type_check_instance_cast(ptr noundef %56, i64 noundef %57)
  call void @gtk_box_pack_start(ptr noundef %55, ptr noundef %58, i32 noundef 0, i32 noundef 0, i32 noundef 0)
  call void @llvm.lifetime.start.p0(i64 8, ptr %10) #8
  %59 = call ptr @dcgettext(ptr noundef null, ptr noundef @.str.22, i32 noundef 5) #8
  %60 = call ptr @gtk_label_new(ptr noundef %59)
  store ptr %60, ptr %10, align 8, !tbaa !13
  %61 = load ptr, ptr %10, align 8, !tbaa !13
  call void @gtk_widget_set_name(ptr noundef %61, ptr noundef @.str.23)
  call void @llvm.lifetime.start.p0(i64 8, ptr %11) #8
  %62 = call ptr @dcgettext(ptr noundef null, ptr noundef @.str.24, i32 noundef 5) #8
  %63 = call ptr @gtk_label_new(ptr noundef %62)
  store ptr %63, ptr %11, align 8, !tbaa !13
  %64 = load ptr, ptr %11, align 8, !tbaa !13
  call void @gtk_widget_set_name(ptr noundef %64, ptr noundef @.str.23)
  %65 = load ptr, ptr %9, align 8, !tbaa !17
  %66 = load ptr, ptr %10, align 8, !tbaa !13
  call void @gtk_box_pack_start(ptr noundef %65, ptr noundef %66, i32 noundef 0, i32 noundef 0, i32 noundef 0)
  %67 = load ptr, ptr %9, align 8, !tbaa !17
  %68 = load ptr, ptr %11, align 8, !tbaa !13
  call void @gtk_box_pack_start(ptr noundef %67, ptr noundef %68, i32 noundef 0, i32 noundef 0, i32 noundef 0)
  %69 = load ptr, ptr @exit_screen, align 8, !tbaa !13
  call void @gtk_widget_show_all(ptr noundef %69)
  call void @_process_all_gui_events()
  %70 = load ptr, ptr @exit_screen, align 8, !tbaa !13
  %71 = call i64 @gtk_window_get_type() #9
  %72 = call ptr @g_type_check_instance_cast(ptr noundef %70, i64 noundef %71)
  call void @gtk_window_set_keep_above(ptr noundef %72, i32 noundef 0)
  call void (...) @dt_gui_process_events()
  call void @llvm.lifetime.end.p0(i64 8, ptr %11) #8
  call void @llvm.lifetime.end.p0(i64 8, ptr %10) #8
  call void @llvm.lifetime.end.p0(i64 8, ptr %9) #8
  call void @llvm.lifetime.end.p0(i64 8, ptr %8) #8
  call void @llvm.lifetime.end.p0(i64 8, ptr %7) #8
  call void @llvm.lifetime.end.p0(i64 8, ptr %6) #8
  call void @llvm.lifetime.end.p0(i64 4, ptr %5) #8
  br label %73

73:                                               ; preds = %27, %26
  ret void
}