; Function Attrs: nounwind uwtable
define void @darktable_exit_screen_create(ptr noundef %0, i32 noundef %1) local_unnamed_addr #0 {
  %3 = load ptr, ptr @exit_screen, align 8, !tbaa !6
  %.not = icmp eq ptr %3, null
  br i1 %.not, label %4, label %40

4:                                                ; preds = %2
  %5 = load ptr, ptr getelementptr inbounds nuw (i8, ptr @darktable, i64 3424), align 8, !tbaa !11
  %.not.i = icmp eq ptr %5, null
  br i1 %.not.i, label %dt_check_gimpmode.exit19.thread, label %dt_check_gimpmode.exit

dt_check_gimpmode.exit:                           ; preds = %4
  %6 = tail call i32 @strcmp(ptr noundef nonnull dereferenceable(1) %5, ptr noundef nonnull dereferenceable(5) @.str) #6
  %.not22 = icmp eq i32 %6, 0
  br i1 %.not22, label %40, label %dt_check_gimpmode.exit19

dt_check_gimpmode.exit19:                         ; preds = %dt_check_gimpmode.exit
  %7 = tail call i32 @strcmp(ptr noundef nonnull dereferenceable(1) %5, ptr noundef nonnull dereferenceable(6) @.str.1) #6
  %.not23 = icmp eq i32 %7, 0
  br i1 %.not23, label %40, label %dt_check_gimpmode.exit19.thread

dt_check_gimpmode.exit19.thread:                  ; preds = %4, %dt_check_gimpmode.exit19
  %8 = tail call i32 @dt_conf_get_bool(ptr noundef nonnull @.str.2) #7
  %9 = or i32 %8, %1
  %or.cond.not = icmp eq i32 %9, 0
  br i1 %or.cond.not, label %40, label %10

10:                                               ; preds = %dt_check_gimpmode.exit19.thread
  %11 = tail call ptr @dcgettext(ptr noundef null, ptr noundef nonnull @.str.21, i32 noundef 5) #7
  %12 = tail call ptr (ptr, ptr, i32, ptr, ...) @gtk_dialog_new_with_buttons(ptr noundef %11, ptr noundef %0, i32 noundef 6, ptr noundef null, i32 noundef -1, ptr noundef null) #7
  store ptr %12, ptr @exit_screen, align 8, !tbaa !6
  %13 = tail call i64 @gtk_window_get_type() #8
  %14 = tail call ptr @g_type_check_instance_cast(ptr noundef %12, i64 noundef %13) #7
  tail call void @gtk_window_set_position(ptr noundef %14, i32 noundef 1) #7
  %15 = load ptr, ptr @exit_screen, align 8, !tbaa !6
  tail call void @gtk_widget_set_name(ptr noundef %15, ptr noundef nonnull @.str.4) #7
  %16 = load ptr, ptr @exit_screen, align 8, !tbaa !6
  tail call fastcc void @_set_header_bar(ptr noundef %16)
  %17 = tail call fastcc ptr @_get_program_name()
  %18 = tail call fastcc ptr @_get_logo()
  %19 = tail call i64 @gtk_image_get_type() #8
  %20 = tail call ptr @g_type_check_instance_cast(ptr noundef %18, i64 noundef %19) #7
  tail call void @gtk_image_set_pixel_size(ptr noundef %20, i32 noundef 220) #7
  %21 = tail call ptr @gtk_box_new(i32 noundef 0, i32 noundef 0) #7
  %22 = tail call i64 @gtk_box_get_type() #8
  %23 = tail call ptr @g_type_check_instance_cast(ptr noundef %21, i64 noundef %22) #7
  tail call void @gtk_box_pack_start(ptr noundef %23, ptr noundef %18, i32 noundef 0, i32 noundef 0, i32 noundef 0) #7
  tail call void @gtk_box_pack_start(ptr noundef %23, ptr noundef %17, i32 noundef 0, i32 noundef 0, i32 noundef 0) #7
  %24 = load ptr, ptr @exit_screen, align 8, !tbaa !6
  %25 = tail call i64 @gtk_dialog_get_type() #8
  %26 = tail call ptr @g_type_check_instance_cast(ptr noundef %24, i64 noundef %25) #7
  %27 = tail call ptr @gtk_dialog_get_content_area(ptr noundef %26) #7
  %28 = tail call ptr @g_type_check_instance_cast(ptr noundef %27, i64 noundef %22) #7
  %29 = tail call i64 @gtk_widget_get_type() #8
  %30 = tail call ptr @g_type_check_instance_cast(ptr noundef %23, i64 noundef %29) #7
  tail call void @gtk_box_pack_start(ptr noundef %28, ptr noundef %30, i32 noundef 0, i32 noundef 0, i32 noundef 0) #7
  %31 = tail call ptr @dcgettext(ptr noundef null, ptr noundef nonnull @.str.22, i32 noundef 5) #7
  %32 = tail call ptr @gtk_label_new(ptr noundef %31) #7
  tail call void @gtk_widget_set_name(ptr noundef %32, ptr noundef nonnull @.str.23) #7
  %33 = tail call ptr @dcgettext(ptr noundef null, ptr noundef nonnull @.str.24, i32 noundef 5) #7
  %34 = tail call ptr @gtk_label_new(ptr noundef %33) #7
  tail call void @gtk_widget_set_name(ptr noundef %34, ptr noundef nonnull @.str.23) #7
  tail call void @gtk_box_pack_start(ptr noundef %28, ptr noundef %32, i32 noundef 0, i32 noundef 0, i32 noundef 0) #7
  tail call void @gtk_box_pack_start(ptr noundef %28, ptr noundef %34, i32 noundef 0, i32 noundef 0, i32 noundef 0) #7
  %35 = load ptr, ptr @exit_screen, align 8, !tbaa !6
  tail call void @gtk_widget_show_all(ptr noundef %35) #7
  br label %36

36:                                               ; preds = %36, %10
  %.02.i = phi i32 [ 0, %10 ], [ %37, %36 ]
  tail call void @g_usleep(i64 noundef 1000) #7
  tail call void (...) @dt_gui_process_events() #7
  %37 = add nuw nsw i32 %.02.i, 1
  %exitcond.not.i = icmp eq i32 %37, 5
  br i1 %exitcond.not.i, label %_process_all_gui_events.exit, label %36

_process_all_gui_events.exit:                     ; preds = %36
  %38 = load ptr, ptr @exit_screen, align 8, !tbaa !6
  %39 = tail call ptr @g_type_check_instance_cast(ptr noundef %38, i64 noundef %13) #7
  tail call void @gtk_window_set_keep_above(ptr noundef %39, i32 noundef 0) #7
  tail call void (...) @dt_gui_process_events() #7
  br label %40

40:                                               ; preds = %2, %dt_check_gimpmode.exit, %dt_check_gimpmode.exit19, %dt_check_gimpmode.exit19.thread, %_process_all_gui_events.exit
  ret void
}